(dp0
I1
(dp1
I0
(dp2
I1
I1
ssI1
(dp3
I0
I1
sI1
I1
ssI2
(dp4
I0
I2
sI1
I1
ssI3
(dp5
I0
I2
sI1
I2
ssI4
(dp6
I0
I3
sI1
I2
ssI5
(dp7
I0
I4
sI1
I2
ssI6
(dp8
I0
I5
sI1
I2
ssI7
(dp9
I0
I6
sI1
I2
ssI8
(dp10
I0
I7
sI1
I2
ssI9
(dp11
I0
I8
sI1
I2
ssI10
(dp12
I0
I9
sI1
I2
ssI11
(dp13
I0
I9
sI1
I3
ssI12
(dp14
I0
I10
sI1
I3
ssI13
(dp15
I0
I10
sI1
I4
ssI14
(dp16
I0
I11
sI1
I4
ssI15
(dp17
I0
I11
sI1
I5
ssI16
(dp18
I0
I11
sI1
I6
ssI17
(dp19
I0
I11
sI1
I7
ssI18
(dp20
I0
I11
sI1
I8
ssI19
(dp21
I0
I12
sI1
I8
ssI20
(dp22
I0
I13
sI1
I8
ssI21
(dp23
I0
I14
sI1
I8
ssI22
(dp24
I0
I14
sI1
I9
ssI23
(dp25
I0
I15
sI1
I9
ssI24
(dp26
I0
I15
sI1
I10
ssI25
(dp27
I0
I15
sI1
I11
ssI26
(dp28
I0
I15
sI1
I12
ssI27
(dp29
I0
I15
sI1
I13
ssI28
(dp30
I0
I15
sI1
I14
ssI29
(dp31
I0
I16
sI1
I14
ssI30
(dp32
I0
I17
sI1
I14
ssI31
(dp33
I0
I18
sI1
I14
ssI32
(dp34
I0
I18
sI1
I15
ssI33
(dp35
I0
I18
sI1
I16
ssI34
(dp36
I0
I18
sI1
I17
ssI35
(dp37
I0
I18
sI1
I18
ssI36
(dp38
I0
I18
sI1
I19
ssI37
(dp39
I0
I19
sI1
I19
ssI38
(dp40
I0
I19
sI1
I20
ssI39
(dp41
I0
I20
sI1
I20
ssI40
(dp42
I0
I20
sI1
I21
ssI41
(dp43
I0
I21
sI1
I21
ssI42
(dp44
I0
I21
sI1
I22
ssI43
(dp45
I0
I21
sI1
I23
ssI44
(dp46
I0
I21
sI1
I24
ssI45
(dp47
I0
I21
sI1
I25
ssI46
(dp48
I0
I21
sI1
I26
ssI47
(dp49
I0
I22
sI1
I26
ssI48
(dp50
I0
I23
sI1
I26
ssI49
(dp51
I0
I23
sI1
I27
ssI50
(dp52
I0
I24
sI1
I27
ssI51
(dp53
I0
I24
sI1
I28
ssI52
(dp54
I0
I24
sI1
I29
ssI53
(dp55
I0
I24
sI1
I30
ssI54
(dp56
I0
I25
sI1
I30
ssI55
(dp57
I0
I26
sI1
I30
ssI56
(dp58
I0
I27
sI1
I30
ssI57
(dp59
I0
I27
sI1
I31
ssI58
(dp60
I0
I27
sI1
I32
ssI59
(dp61
I0
I27
sI1
I33
ssI60
(dp62
I0
I27
sI1
I34
ssI61
(dp63
I0
I28
sI1
I34
ssI62
(dp64
I0
I29
sI1
I34
ssI63
(dp65
I0
I29
sI1
I35
ssI64
(dp66
I0
I29
sI1
I36
ssI65
(dp67
I0
I29
sI1
I37
ssI66
(dp68
I0
I29
sI1
I38
ssI67
(dp69
I0
I30
sI1
I38
ssI68
(dp70
I0
I31
sI1
I38
ssI69
(dp71
I0
I32
sI1
I38
ssI70
(dp72
I0
I32
sI1
I39
ssI71
(dp73
I0
I32
sI1
I40
ssI72
(dp74
I0
I33
sI1
I40
ssI73
(dp75
I0
I34
sI1
I40
ssI74
(dp76
I0
I34
sI1
I41
ssI75
(dp77
I0
I35
sI1
I41
ssI76
(dp78
I0
I36
sI1
I41
ssI77
(dp79
I0
I37
sI1
I41
ssI78
(dp80
I0
I37
sI1
I42
ssI79
(dp81
I0
I38
sI1
I42
ssI80
(dp82
I0
I39
sI1
I42
ssI81
(dp83
I0
I40
sI1
I42
ssI82
(dp84
I0
I40
sI1
I43
ssI83
(dp85
I0
I41
sI1
I43
ssI84
(dp86
I0
I42
sI1
I43
ssI85
(dp87
I0
I42
sI1
I44
ssI86
(dp88
I0
I43
sI1
I44
ssI87
(dp89
I0
I43
sI1
I45
ssI88
(dp90
I0
I44
sI1
I45
ssI89
(dp91
I0
I45
sI1
I45
ssI90
(dp92
I0
I46
sI1
I45
ssI91
(dp93
I0
I46
sI1
I46
ssI92
(dp94
I0
I47
sI1
I46
ssI93
(dp95
I0
I48
sI1
I46
ssI94
(dp96
I0
I49
sI1
I46
ssI95
(dp97
I0
I49
sI1
I47
ssI96
(dp98
I0
I49
sI1
I48
ssI97
(dp99
I0
I49
sI1
I49
ssI98
(dp100
I0
I50
sI1
I49
ssI99
(dp101
I0
I51
sI1
I49
sss.