(dp0
I1
(dp1
I0
(dp2
I0
I1
ssI1
(dp3
I0
I1
sI1
I1
ssI2
(dp4
I0
I1
sI1
I2
ssI3
(dp5
I0
I1
sI1
I3
ssI4
(dp6
I0
I2
sI1
I3
ssI5
(dp7
I0
I2
sI1
I4
ssI6
(dp8
I0
I3
sI1
I4
ssI7
(dp9
I0
I4
sI1
I4
ssI8
(dp10
I0
I4
sI1
I5
ssI9
(dp11
I0
I5
sI1
I5
ssI10
(dp12
I0
I6
sI1
I5
ssI11
(dp13
I0
I7
sI1
I5
ssI12
(dp14
I0
I7
sI1
I6
ssI13
(dp15
I0
I8
sI1
I6
ssI14
(dp16
I0
I8
sI1
I7
ssI15
(dp17
I0
I9
sI1
I7
ssI16
(dp18
I0
I9
sI1
I8
ssI17
(dp19
I0
I9
sI1
I9
ssI18
(dp20
I0
I10
sI1
I9
ssI19
(dp21
I0
I11
sI1
I9
ssI20
(dp22
I0
I12
sI1
I9
ssI21
(dp23
I0
I13
sI1
I9
ssI22
(dp24
I0
I13
sI1
I10
ssI23
(dp25
I0
I14
sI1
I10
ssI24
(dp26
I0
I15
sI1
I10
ssI25
(dp27
I0
I16
sI1
I10
ssI26
(dp28
I0
I17
sI1
I10
ssI27
(dp29
I0
I18
sI1
I10
ssI28
(dp30
I0
I18
sI1
I11
ssI29
(dp31
I0
I19
sI1
I11
ssI30
(dp32
I0
I20
sI1
I11
ssI31
(dp33
I0
I21
sI1
I11
ssI32
(dp34
I0
I21
sI1
I12
ssI33
(dp35
I0
I22
sI1
I12
ssI34
(dp36
I0
I22
sI1
I13
ssI35
(dp37
I0
I22
sI1
I14
ssI36
(dp38
I0
I22
sI1
I15
ssI37
(dp39
I0
I23
sI1
I15
ssI38
(dp40
I0
I24
sI1
I15
ssI39
(dp41
I0
I24
sI1
I16
ssI40
(dp42
I0
I25
sI1
I16
ssI41
(dp43
I0
I26
sI1
I16
ssI42
(dp44
I0
I26
sI1
I17
ssI43
(dp45
I0
I26
sI1
I18
ssI44
(dp46
I0
I27
sI1
I18
ssI45
(dp47
I0
I27
sI1
I19
ssI46
(dp48
I0
I28
sI1
I19
ssI47
(dp49
I0
I29
sI1
I19
ssI48
(dp50
I0
I30
sI1
I19
ssI49
(dp51
I0
I31
sI1
I19
ssI50
(dp52
I0
I32
sI1
I19
ssI51
(dp53
I0
I33
sI1
I19
ssI52
(dp54
I0
I34
sI1
I19
ssI53
(dp55
I0
I35
sI1
I19
ssI54
(dp56
I0
I35
sI1
I20
ssI55
(dp57
I0
I35
sI1
I21
ssI56
(dp58
I0
I36
sI1
I21
ssI57
(dp59
I0
I36
sI1
I22
ssI58
(dp60
I0
I36
sI1
I23
ssI59
(dp61
I0
I36
sI1
I24
ssI60
(dp62
I0
I36
sI1
I25
ssI61
(dp63
I0
I37
sI1
I25
ssI62
(dp64
I0
I38
sI1
I25
ssI63
(dp65
I0
I39
sI1
I25
ssI64
(dp66
I0
I39
sI1
I26
ssI65
(dp67
I0
I39
sI1
I27
ssI66
(dp68
I0
I39
sI1
I28
ssI67
(dp69
I0
I40
sI1
I28
ssI68
(dp70
I0
I41
sI1
I28
ssI69
(dp71
I0
I42
sI1
I28
ssI70
(dp72
I0
I43
sI1
I28
ssI71
(dp73
I0
I43
sI1
I29
ssI72
(dp74
I0
I43
sI1
I30
ssI73
(dp75
I0
I43
sI1
I31
ssI74
(dp76
I0
I44
sI1
I31
ssI75
(dp77
I0
I44
sI1
I32
ssI76
(dp78
I0
I44
sI1
I33
ssI77
(dp79
I0
I44
sI1
I34
ssI78
(dp80
I0
I44
sI1
I35
ssI79
(dp81
I0
I45
sI1
I35
ssI80
(dp82
I0
I46
sI1
I35
ssI81
(dp83
I0
I46
sI1
I36
ssI82
(dp84
I0
I47
sI1
I36
ssI83
(dp85
I0
I47
sI1
I37
ssI84
(dp86
I0
I47
sI1
I38
ssI85
(dp87
I0
I48
sI1
I38
ssI86
(dp88
I0
I49
sI1
I38
ssI87
(dp89
I0
I49
sI1
I39
ssI88
(dp90
I0
I49
sI1
I40
ssI89
(dp91
I0
I50
sI1
I40
ssI90
(dp92
I0
I51
sI1
I40
ssI91
(dp93
I0
I52
sI1
I40
ssI92
(dp94
I0
I52
sI1
I41
ssI93
(dp95
I0
I53
sI1
I41
ssI94
(dp96
I0
I54
sI1
I41
ssI95
(dp97
I0
I55
sI1
I41
ssI96
(dp98
I0
I55
sI1
I42
ssI97
(dp99
I0
I56
sI1
I42
ssI98
(dp100
I0
I56
sI1
I43
ssI99
(dp101
I0
I57
sI1
I43
sss.